target datalayout = "e-m:e-p270:32:32-p271:32:32-p272:64:64-i64:64-i128:128-f80:128-n8:16:32:64-S128"
target triple = "x86_64-pc-linux-gnu"

%struct.QMetaObject = type { %struct.anon }
%struct.anon = type { %"struct.QMetaObject::SuperData", ptr, ptr, ptr, ptr, ptr }
%"struct.QMetaObject::SuperData" = type { ptr }
%struct.QArrayData = type { %"class.QtPrivate::RefCount", i32, i32, i64 }
%"class.QtPrivate::RefCount" = type { %class.QBasicAtomicInteger }
%class.QBasicAtomicInteger = type { %"struct.std::atomic" }
%"struct.std::atomic" = type { %"struct.std::__atomic_base" }
%"struct.std::__atomic_base" = type { i32 }
%class.QString = type { ptr }

@.str.6 = private unnamed_addr constant [35 x i8] c"Draw XYZ axes in world coordinates\00", align 1
@.str.7 = private unnamed_addr constant [35 x i8] c"Draw object's bounding box corners\00", align 1
@.str.8 = private unnamed_addr constant [29 x i8] c"Draw per vertex/face normals\00", align 1
@.str.9 = private unnamed_addr constant [52 x i8] c"Draw per vertex/face principal curvature directions\00", align 1
@.str.10 = private unnamed_addr constant [127 x i8] c"Draw on all the vertex/edge/face a label with their index<br> Useful for debugging<br>(WARNING: do not use it on large meshes)\00", align 1
@.str.11 = private unnamed_addr constant [53 x i8] c"Draw a (colored) Histogram of the per vertex quality\00", align 1
@.str.12 = private unnamed_addr constant [51 x i8] c"Draw a (colored) Histogram of the per face quality\00", align 1
@.str.13 = private unnamed_addr constant [88 x i8] c"Draw quality contours, e.g. the isolines of the quality field defined over the surface \00", align 1
@.str.14 = private unnamed_addr constant [56 x i8] c"Draw the position of the mesh camera and raster cameras\00", align 1
@.str.15 = private unnamed_addr constant [93 x i8] c"Draw an overlaid flattened version of the current mesh that show the current parametrization\00", align 1
@.str.16 = private unnamed_addr constant [27 x i8] c"Highlight the current mesh\00", align 1
@_ZN18DecorateBasePlugin16staticMetaObjectE = external global %struct.QMetaObject, align 8
@_ZN10QArrayData11shared_nullE = external global [2 x %struct.QArrayData], align 16

; Function Attrs: mustprogress nounwind uwtable
define linkonce_odr noundef ptr @_ZN10QArrayData10sharedNullEv() #4 comdat align 2 {
  ret ptr @_ZN10QArrayData11shared_nullE
}

; Function Attrs: mustprogress nounwind uwtable
define linkonce_odr noundef ptr @_ZN15QTypedArrayDataItE10sharedNullEv() #4 comdat align 2 {
  %1 = call noundef ptr @_ZN10QArrayData10sharedNullEv() #3
  ret ptr %1
}

; Function Attrs: mustprogress nounwind uwtable
define linkonce_odr void @_ZN7QStringC2Ev(ptr noundef nonnull align 8 dereferenceable(8) %0) unnamed_addr #4 comdat align 2 {
  %2 = alloca ptr, align 8
  store ptr %0, ptr %2, align 8
  %3 = load ptr, ptr %2, align 8
  %4 = getelementptr inbounds %class.QString, ptr %3, i32 0, i32 0
  %5 = call noundef ptr @_ZN15QTypedArrayDataItE10sharedNullEv() #3
  store ptr %5, ptr %4, align 8
  ret void
}

; Function Attrs: mustprogress uwtable
define linkonce_odr void @_ZN18DecorateBasePlugin2trEPKcS1_i(ptr dead_on_unwind noalias writable sret(%class.QString) align 8 %0, ptr noundef %1, ptr noundef %2, i32 noundef %3) #5 comdat align 2 {
  %5 = alloca ptr, align 8
  %6 = alloca ptr, align 8
  %7 = alloca ptr, align 8
  %8 = alloca i32, align 4
  store ptr %0, ptr %5, align 8
  store ptr %1, ptr %6, align 8
  store ptr %2, ptr %7, align 8
  store i32 %3, ptr %8, align 4
  %9 = load ptr, ptr %6, align 8
  %10 = load ptr, ptr %7, align 8
  %11 = load i32, ptr %8, align 4
  call void @_ZNK11QMetaObject2trEPKcS1_i(ptr dead_on_unwind writable sret(%class.QString) align 8 %0, ptr noundef nonnull align 8 dereferenceable(48) @_ZN18DecorateBasePlugin16staticMetaObjectE, ptr noundef %9, ptr noundef %10, i32 noundef %11)
  ret void
}

; Function Attrs: mustprogress uwtable
define void @_ZNK18DecorateBasePlugin14decorationInfoEi(ptr dead_on_unwind noalias writable sret(%class.QString) align 8 %0, ptr noundef nonnull align 8 dereferenceable(192) %1, i32 noundef %2) unnamed_addr #5 align 2 {
  %4 = alloca ptr, align 8
  %5 = alloca ptr, align 8
  %6 = alloca i32, align 4
  store ptr %0, ptr %4, align 8
  store ptr %1, ptr %5, align 8
  store i32 %2, ptr %6, align 4
  %7 = load i32, ptr %6, align 4
  switch i32 %7, label %19 [
    i32 0, label %8
    i32 1, label %9
    i32 4, label %10
    i32 9, label %11
    i32 10, label %12
    i32 6, label %13
    i32 7, label %14
    i32 8, label %15
    i32 3, label %16
    i32 5, label %17
    i32 2, label %18
  ]

8:                                                ; preds = %3
  call void @_ZN18DecorateBasePlugin2trEPKcS1_i(ptr dead_on_unwind writable sret(%class.QString) align 8 %0, ptr noundef @.str.6, ptr noundef null, i32 noundef -1)
  br label %20

9:                                                ; preds = %3
  call void @_ZN18DecorateBasePlugin2trEPKcS1_i(ptr dead_on_unwind writable sret(%class.QString) align 8 %0, ptr noundef @.str.7, ptr noundef null, i32 noundef -1)
  br label %20

10:                                               ; preds = %3
  call void @_ZN18DecorateBasePlugin2trEPKcS1_i(ptr dead_on_unwind writable sret(%class.QString) align 8 %0, ptr noundef @.str.8, ptr noundef null, i32 noundef -1)
  br label %20

11:                                               ; preds = %3
  call void @_ZN18DecorateBasePlugin2trEPKcS1_i(ptr dead_on_unwind writable sret(%class.QString) align 8 %0, ptr noundef @.str.9, ptr noundef null, i32 noundef -1)
  br label %20

12:                                               ; preds = %3
  call void @_ZN18DecorateBasePlugin2trEPKcS1_i(ptr dead_on_unwind writable sret(%class.QString) align 8 %0, ptr noundef @.str.10, ptr noundef null, i32 noundef -1)
  br label %20

13:                                               ; preds = %3
  call void @_ZN18DecorateBasePlugin2trEPKcS1_i(ptr dead_on_unwind writable sret(%class.QString) align 8 %0, ptr noundef @.str.11, ptr noundef null, i32 noundef -1)
  br label %20

14:                                               ; preds = %3
  call void @_ZN18DecorateBasePlugin2trEPKcS1_i(ptr dead_on_unwind writable sret(%class.QString) align 8 %0, ptr noundef @.str.12, ptr noundef null, i32 noundef -1)
  br label %20

15:                                               ; preds = %3
  call void @_ZN18DecorateBasePlugin2trEPKcS1_i(ptr dead_on_unwind writable sret(%class.QString) align 8 %0, ptr noundef @.str.13, ptr noundef null, i32 noundef -1)
  br label %20

16:                                               ; preds = %3
  call void @_ZN18DecorateBasePlugin2trEPKcS1_i(ptr dead_on_unwind writable sret(%class.QString) align 8 %0, ptr noundef @.str.14, ptr noundef null, i32 noundef -1)
  br label %20

17:                                               ; preds = %3
  call void @_ZN18DecorateBasePlugin2trEPKcS1_i(ptr dead_on_unwind writable sret(%class.QString) align 8 %0, ptr noundef @.str.15, ptr noundef null, i32 noundef -1)
  br label %20

18:                                               ; preds = %3
  call void @_ZN18DecorateBasePlugin2trEPKcS1_i(ptr dead_on_unwind writable sret(%class.QString) align 8 %0, ptr noundef @.str.16, ptr noundef null, i32 noundef -1)
  br label %20

19:                                               ; preds = %3
  call void @_ZN7QStringC2Ev(ptr noundef nonnull align 8 dereferenceable(8) %0) #3
  br label %20

20:                                               ; preds = %19, %18, %17, %16, %15, %14, %13, %12, %11, %10, %9, %8
  ret void
}