; Function Attrs: mustprogress uwtable
define void @_ZNK18DecorateBasePlugin14decorationInfoEi(ptr dead_on_unwind noalias writable sret(%class.QString) align 8 %0, ptr nocapture nonnull readnone align 8 %1, i32 noundef %2) unnamed_addr #9 align 2 {
  switch i32 %2, label %15 [
    i32 0, label %4
    i32 1, label %5
    i32 4, label %6
    i32 9, label %7
    i32 10, label %8
    i32 6, label %9
    i32 7, label %10
    i32 8, label %11
    i32 3, label %12
    i32 5, label %13
    i32 2, label %14
  ]

4:                                                ; preds = %3
  tail call void @_ZNK11QMetaObject2trEPKcS1_i(ptr dead_on_unwind writable sret(%class.QString) align 8 %0, ptr noundef nonnull align 8 dereferenceable(48) @_ZN18DecorateBasePlugin16staticMetaObjectE, ptr noundef nonnull @.str.6, ptr noundef null, i32 noundef -1)
  br label %16

5:                                                ; preds = %3
  tail call void @_ZNK11QMetaObject2trEPKcS1_i(ptr dead_on_unwind writable sret(%class.QString) align 8 %0, ptr noundef nonnull align 8 dereferenceable(48) @_ZN18DecorateBasePlugin16staticMetaObjectE, ptr noundef nonnull @.str.7, ptr noundef null, i32 noundef -1)
  br label %16

6:                                                ; preds = %3
  tail call void @_ZNK11QMetaObject2trEPKcS1_i(ptr dead_on_unwind writable sret(%class.QString) align 8 %0, ptr noundef nonnull align 8 dereferenceable(48) @_ZN18DecorateBasePlugin16staticMetaObjectE, ptr noundef nonnull @.str.8, ptr noundef null, i32 noundef -1)
  br label %16

7:                                                ; preds = %3
  tail call void @_ZNK11QMetaObject2trEPKcS1_i(ptr dead_on_unwind writable sret(%class.QString) align 8 %0, ptr noundef nonnull align 8 dereferenceable(48) @_ZN18DecorateBasePlugin16staticMetaObjectE, ptr noundef nonnull @.str.9, ptr noundef null, i32 noundef -1)
  br label %16

8:                                                ; preds = %3
  tail call void @_ZNK11QMetaObject2trEPKcS1_i(ptr dead_on_unwind writable sret(%class.QString) align 8 %0, ptr noundef nonnull align 8 dereferenceable(48) @_ZN18DecorateBasePlugin16staticMetaObjectE, ptr noundef nonnull @.str.10, ptr noundef null, i32 noundef -1)
  br label %16

9:                                                ; preds = %3
  tail call void @_ZNK11QMetaObject2trEPKcS1_i(ptr dead_on_unwind writable sret(%class.QString) align 8 %0, ptr noundef nonnull align 8 dereferenceable(48) @_ZN18DecorateBasePlugin16staticMetaObjectE, ptr noundef nonnull @.str.11, ptr noundef null, i32 noundef -1)
  br label %16

10:                                               ; preds = %3
  tail call void @_ZNK11QMetaObject2trEPKcS1_i(ptr dead_on_unwind writable sret(%class.QString) align 8 %0, ptr noundef nonnull align 8 dereferenceable(48) @_ZN18DecorateBasePlugin16staticMetaObjectE, ptr noundef nonnull @.str.12, ptr noundef null, i32 noundef -1)
  br label %16

11:                                               ; preds = %3
  tail call void @_ZNK11QMetaObject2trEPKcS1_i(ptr dead_on_unwind writable sret(%class.QString) align 8 %0, ptr noundef nonnull align 8 dereferenceable(48) @_ZN18DecorateBasePlugin16staticMetaObjectE, ptr noundef nonnull @.str.13, ptr noundef null, i32 noundef -1)
  br label %16

12:                                               ; preds = %3
  tail call void @_ZNK11QMetaObject2trEPKcS1_i(ptr dead_on_unwind writable sret(%class.QString) align 8 %0, ptr noundef nonnull align 8 dereferenceable(48) @_ZN18DecorateBasePlugin16staticMetaObjectE, ptr noundef nonnull @.str.14, ptr noundef null, i32 noundef -1)
  br label %16

13:                                               ; preds = %3
  tail call void @_ZNK11QMetaObject2trEPKcS1_i(ptr dead_on_unwind writable sret(%class.QString) align 8 %0, ptr noundef nonnull align 8 dereferenceable(48) @_ZN18DecorateBasePlugin16staticMetaObjectE, ptr noundef nonnull @.str.15, ptr noundef null, i32 noundef -1)
  br label %16

14:                                               ; preds = %3
  tail call void @_ZNK11QMetaObject2trEPKcS1_i(ptr dead_on_unwind writable sret(%class.QString) align 8 %0, ptr noundef nonnull align 8 dereferenceable(48) @_ZN18DecorateBasePlugin16staticMetaObjectE, ptr noundef nonnull @.str.16, ptr noundef null, i32 noundef -1)
  br label %16

15:                                               ; preds = %3
  store ptr @_ZN10QArrayData11shared_nullE, ptr %0, align 8
  br label %16

16:                                               ; preds = %15, %14, %13, %12, %11, %10, %9, %8, %7, %6, %5, %4
  ret void
}